ccopy_reg
_reconstructor
p0
(c__main__
SolutionReport
p1
c__builtin__
object
p2
Ntp3
Rp4
(dp5
S'mission_xml_as_expected'
p6
NsS'mission_type'
p7
S'small'
p8
sS'mission_seed'
p9
I0
sS'reward_cumulative'
p10
F-1421.7999877929688
sS'action_count'
p11
I114
sS'is_timeout'
p12
I01
sS'mission_xml'
p13
(S'<?xml version="1.0" encoding="UTF-8" standalone="no" ?>\n<Mission xmlns="http://ProjectMalmo.microsoft.com" xmlns:xsi="http://www.w3.org/2001/XMLSchema-instance" xsi:schemaLocation="http://ProjectMalmo.microsoft.com Mission.xsd">\n  <About>\n    <Summary>Mission for assessed exercise 2016/2017 University of Glasgow</Summary>\n  </About>\n  <ServerSection>\n    <ServerInitialConditions>\n      <Time>\n        <StartTime>6000</StartTime>\n        <AllowPassageOfTime>false</AllowPassageOfTime>\n      </Time>\n      <Weather>clear</Weather>\n      <AllowSpawning>false</AllowSpawning>\n    </ServerInitialConditions>\n    <ServerHandlers>\n      <FlatWorldGenerator forceReset="true" generatorString="3;7,220*1,5*3,2;3;,biome_1" seed=""/>\n      <MazeDecorator>\n        <Seed>0</Seed>\n        <MaterialSeed>1</MaterialSeed>\n        <AllowDiagonalMovement>false</AllowDiagonalMovement>\n        <SizeAndPosition height="180" length="25" scale="1" width="25" xOrigin="0" yOrigin="215" zOrigin="0"/>\n        <StartBlock fixedToEdge="true" height="1" heightVariance="0" type="emerald_block"/>\n        <EndBlock fixedToEdge="true" height="12" heightVariance="0" type="redstone_block"/>\n        <PathBlock colour="WHITE ORANGE MAGENTA LIGHT_BLUE YELLOW LIME PINK GRAY SILVER CYAN PURPLE BLUE BROWN GREEN RED BLACK" height="1" heightVariance="0" type="glowstone"/>\n        <FloorBlock height="1" heightVariance="0" type="air"/>\n        <GapBlock colour="WHITE ORANGE MAGENTA LIGHT_BLUE YELLOW LIME PINK GRAY SILVER CYAN PURPLE BLUE BROWN GREEN RED BLACK" height="3" heightVariance="0" type="stained_hardened_clay"/>\n        <SubgoalBlock height="1" heightVariance="0" type="glowstone"/>\n        <Waypoints quantity="6">\n          <WaypointItem type="diamond"/>\n        </Waypoints>\n        <GapProbability variance="0.3">0.2</GapProbability>\n      </MazeDecorator>\n      <ServerQuitFromTimeUp description="out_of_time" timeLimitMs="60000"/>\n      <ServerQuitWhenAnyAgentFinishes description=""/>\n    </ServerHandlers>\n  </ServerSection>\n  <AgentSection mode="Creative">\n    <Name>William Wallace by 6</Name>\n    <AgentStart>\n      <Placement pitch="0" x="0" y="216" yaw="0" z="90"/>\n    </AgentStart>\n    <AgentHandlers>\n      <ObservationFromRecentCommands/>\n      <ObservationFromFullStats/>\n      <ObservationFromFullInventory/>\n      <ObservationFromGrid>\n        <Grid name="grid">\n          <min x="-1" y="-1" z="-1"/>\n          <max x="1" y="-1" z="1"/>\n        </Grid>\n      </ObservationFromGrid>\n      <VideoProducer viewpoint="0" want_depth="true">\n        <Width>320</Width>\n        <Height>240</Height>\n      </VideoProducer>\n      <RewardForSendingCommand dimension="0" reward="-6"/>\n      <RewardForCollectingItem dimension="0">\n        <Item reward="-10" type="diamond"/>\n      </RewardForCollectingItem>\n      <RewardForMissionEnd dimension="0" rewardForDeath="-100000">\n        <Reward description="found_goal" reward="1377.25"/>\n        <Reward description="out_of_time" reward="-727.799999999999955"/>\n      </RewardForMissionEnd>\n      <AbsoluteMovementCommands/>\n      <AgentQuitFromTouchingBlockType>\n        <Block description="found_goal" type="redstone_block"/>\n      </AgentQuitFromTouchingBlockType>\n    </AgentHandlers>\n  </AgentSection>\n</Mission>\n'
p14
F1377.25
F-10.0
I6
F-727.8
I-6
I60000
tp15
sS'is_goal'
p16
I00
sS'start_datetime_wallclock'
p17
cdatetime
datetime
p18
(S'\x07\xe0\x0c\x07\x00\x1b\x06\x0e\xdd\x9c'
p19
tp20
Rp21
sS'end_datetime_wallclock'
p22
g18
(S'\x07\xe0\x0c\x07\x00\x1c\x04\x05\x9a '
p23
tp24
Rp25
sS'student_guid'
p26
S'template'
p27
sb.